target datalayout = "e-m:e-p270:32:32-p271:32:32-p272:64:64-i64:64-i128:128-f80:128-n8:16:32:64-S128"
target triple = "x86_64-pc-linux-gnu"

%struct.Vec_Int_t_ = type { i32, i32, ptr }
%struct.Vec_Flt_t_ = type { i32, i32, ptr }
%struct.SC_Man_ = type { ptr, ptr, i32, ptr, ptr, ptr, ptr, ptr, ptr, ptr, ptr, ptr, ptr, ptr, ptr, ptr, ptr, ptr, ptr, ptr, float, float, float, i32, ptr, ptr, ptr, ptr, ptr, ptr, ptr, i32, float, float, float, float, float, float, i64, i64, i64, i64, i64, ptr }
%struct.SC_Pair_ = type { float, float }
%struct.Abc_Obj_t_ = type { ptr, ptr, i32, i32, %struct.Vec_Int_t_, %struct.Vec_Int_t_, %union.anon, %union.anon.0 }
%union.anon = type { ptr }
%union.anon.0 = type { ptr }

; Function Attrs: inlinehint nounwind uwtable
define internal i32 @Abc_ObjId(ptr noundef %0) #2 {
  %2 = alloca ptr, align 8
  store ptr %0, ptr %2, align 8, !tbaa !36
  %3 = load ptr, ptr %2, align 8, !tbaa !36
  %4 = getelementptr inbounds nuw %struct.Abc_Obj_t_, ptr %3, i32 0, i32 2
  %5 = load i32, ptr %4, align 8, !tbaa !100
  ret i32 %5
}

; Function Attrs: inlinehint nounwind uwtable
define internal float @Vec_FltEntry(ptr noundef %0, i32 noundef %1) #2 {
  %3 = alloca ptr, align 8
  %4 = alloca i32, align 4
  store ptr %0, ptr %3, align 8, !tbaa !10
  store i32 %1, ptr %4, align 4, !tbaa !8
  %5 = load ptr, ptr %3, align 8, !tbaa !10
  %6 = getelementptr inbounds nuw %struct.Vec_Flt_t_, ptr %5, i32 0, i32 2
  %7 = load ptr, ptr %6, align 8, !tbaa !33
  %8 = load i32, ptr %4, align 4, !tbaa !8
  %9 = sext i32 %8 to i64
  %10 = getelementptr inbounds float, ptr %7, i64 %9
  %11 = load float, ptr %10, align 4, !tbaa !23
  ret float %11
}

; Function Attrs: inlinehint nounwind uwtable
define internal i32 @Abc_MinInt(i32 noundef %0, i32 noundef %1) #2 {
  %3 = alloca i32, align 4
  %4 = alloca i32, align 4
  store i32 %0, ptr %3, align 4, !tbaa !8
  store i32 %1, ptr %4, align 4, !tbaa !8
  %5 = load i32, ptr %3, align 4, !tbaa !8
  %6 = load i32, ptr %4, align 4, !tbaa !8
  %7 = icmp slt i32 %5, %6
  br i1 %7, label %8, label %10

8:                                                ; preds = %2
  %9 = load i32, ptr %3, align 4, !tbaa !8
  br label %12

10:                                               ; preds = %2
  %11 = load i32, ptr %4, align 4, !tbaa !8
  br label %12

12:                                               ; preds = %10, %8
  %13 = phi i32 [ %9, %8 ], [ %11, %10 ]
  ret i32 %13
}

; Function Attrs: inlinehint nounwind uwtable
define internal i32 @Vec_FltSize(ptr noundef %0) #2 {
  %2 = alloca ptr, align 8
  store ptr %0, ptr %2, align 8, !tbaa !10
  %3 = load ptr, ptr %2, align 8, !tbaa !10
  %4 = getelementptr inbounds nuw %struct.Vec_Flt_t_, ptr %3, i32 0, i32 1
  %5 = load i32, ptr %4, align 4, !tbaa !32
  ret i32 %5
}

; Function Attrs: inlinehint nounwind uwtable
define internal ptr @Abc_SclObjLoad(ptr noundef %0, ptr noundef %1) #2 {
  %3 = alloca ptr, align 8
  %4 = alloca ptr, align 8
  store ptr %0, ptr %3, align 8, !tbaa !34
  store ptr %1, ptr %4, align 8, !tbaa !36
  %5 = load ptr, ptr %3, align 8, !tbaa !34
  %6 = getelementptr inbounds nuw %struct.SC_Man_, ptr %5, i32 0, i32 8
  %7 = load ptr, ptr %6, align 8, !tbaa !52
  %8 = load ptr, ptr %4, align 8, !tbaa !36
  %9 = call i32 @Abc_ObjId(ptr noundef %8)
  %10 = zext i32 %9 to i64
  %11 = getelementptr inbounds nuw %struct.SC_Pair_, ptr %7, i64 %10
  ret ptr %11
}

; Function Attrs: nounwind uwtable
define float @Abc_SclFindWireLoad(ptr noundef %0, i32 noundef %1) #0 {
  %3 = alloca float, align 4
  %4 = alloca ptr, align 8
  %5 = alloca i32, align 4
  store ptr %0, ptr %4, align 8, !tbaa !10
  store i32 %1, ptr %5, align 4, !tbaa !8
  %6 = load ptr, ptr %4, align 8, !tbaa !10
  %7 = icmp eq ptr %6, null
  br i1 %7, label %8, label %9

8:                                                ; preds = %2
  store float 0.000000e+00, ptr %3, align 4
  br label %17

9:                                                ; preds = %2
  %10 = load ptr, ptr %4, align 8, !tbaa !10
  %11 = load i32, ptr %5, align 4, !tbaa !8
  %12 = load ptr, ptr %4, align 8, !tbaa !10
  %13 = call i32 @Vec_FltSize(ptr noundef %12)
  %14 = sub nsw i32 %13, 1
  %15 = call i32 @Abc_MinInt(i32 noundef %11, i32 noundef %14)
  %16 = call float @Vec_FltEntry(ptr noundef %10, i32 noundef %15)
  store float %16, ptr %3, align 4
  br label %17

17:                                               ; preds = %9, %8
  %18 = load float, ptr %3, align 4
  ret float %18
}

; Function Attrs: inlinehint nounwind uwtable
define internal i32 @Abc_ObjFanoutNum(ptr noundef %0) #2 {
  %2 = alloca ptr, align 8
  store ptr %0, ptr %2, align 8, !tbaa !36
  %3 = load ptr, ptr %2, align 8, !tbaa !36
  %4 = getelementptr inbounds nuw %struct.Abc_Obj_t_, ptr %3, i32 0, i32 5
  %5 = getelementptr inbounds nuw %struct.Vec_Int_t_, ptr %4, i32 0, i32 1
  %6 = load i32, ptr %5, align 4, !tbaa !50
  ret i32 %6
}

; Function Attrs: nounwind uwtable
define void @Abc_SclAddWireLoad(ptr noundef %0, ptr noundef %1, i32 noundef %2) #0 {
  %4 = alloca ptr, align 8
  %5 = alloca ptr, align 8
  %6 = alloca i32, align 4
  %7 = alloca float, align 4
  store ptr %0, ptr %4, align 8, !tbaa !34
  store ptr %1, ptr %5, align 8, !tbaa !36
  store i32 %2, ptr %6, align 4, !tbaa !8
  call void @llvm.lifetime.start.p0(i64 4, ptr %7) #7
  %8 = load ptr, ptr %4, align 8, !tbaa !34
  %9 = getelementptr inbounds nuw %struct.SC_Man_, ptr %8, i32 0, i32 7
  %10 = load ptr, ptr %9, align 8, !tbaa !38
  %11 = load ptr, ptr %5, align 8, !tbaa !36
  %12 = call i32 @Abc_ObjFanoutNum(ptr noundef %11)
  %13 = call float @Abc_SclFindWireLoad(ptr noundef %10, i32 noundef %12)
  store float %13, ptr %7, align 4, !tbaa !23
  %14 = load i32, ptr %6, align 4, !tbaa !8
  %15 = icmp ne i32 %14, 0
  br i1 %15, label %16, label %19

16:                                               ; preds = %3
  %17 = load float, ptr %7, align 4, !tbaa !23
  %18 = fneg float %17
  br label %21

19:                                               ; preds = %3
  %20 = load float, ptr %7, align 4, !tbaa !23
  br label %21

21:                                               ; preds = %19, %16
  %22 = phi float [ %18, %16 ], [ %20, %19 ]
  %23 = load ptr, ptr %4, align 8, !tbaa !34
  %24 = load ptr, ptr %5, align 8, !tbaa !36
  %25 = call ptr @Abc_SclObjLoad(ptr noundef %23, ptr noundef %24)
  %26 = getelementptr inbounds nuw %struct.SC_Pair_, ptr %25, i32 0, i32 0
  %27 = load float, ptr %26, align 4, !tbaa !47
  %28 = fadd float %27, %22
  store float %28, ptr %26, align 4, !tbaa !47
  %29 = load i32, ptr %6, align 4, !tbaa !8
  %30 = icmp ne i32 %29, 0
  br i1 %30, label %31, label %34

31:                                               ; preds = %21
  %32 = load float, ptr %7, align 4, !tbaa !23
  %33 = fneg float %32
  br label %36

34:                                               ; preds = %21
  %35 = load float, ptr %7, align 4, !tbaa !23
  br label %36

36:                                               ; preds = %34, %31
  %37 = phi float [ %33, %31 ], [ %35, %34 ]
  %38 = load ptr, ptr %4, align 8, !tbaa !34
  %39 = load ptr, ptr %5, align 8, !tbaa !36
  %40 = call ptr @Abc_SclObjLoad(ptr noundef %38, ptr noundef %39)
  %41 = getelementptr inbounds nuw %struct.SC_Pair_, ptr %40, i32 0, i32 1
  %42 = load float, ptr %41, align 4, !tbaa !49
  %43 = fadd float %42, %37
  store float %43, ptr %41, align 4, !tbaa !49
  call void @llvm.lifetime.end.p0(i64 4, ptr %7) #7
  ret void
}