; Function Attrs: mustprogress nofree norecurse nosync nounwind willreturn memory(readwrite, inaccessiblemem: none) uwtable
define void @Abc_SclAddWireLoad(ptr noundef readonly captures(none) %0, ptr noundef readonly captures(none) %1, i32 noundef %2) local_unnamed_addr #3 {
  %4 = getelementptr inbounds nuw i8, ptr %0, i64 56
  %5 = load ptr, ptr %4, align 8, !tbaa !29
  %6 = icmp eq ptr %5, null
  br i1 %6, label %Abc_SclFindWireLoad.exit, label %7

7:                                                ; preds = %3
  %8 = getelementptr i8, ptr %1, i64 44
  %.val = load i32, ptr %8, align 4, !tbaa !41
  %9 = getelementptr i8, ptr %5, i64 4
  %.val5.i = load i32, ptr %9, align 4, !tbaa !18
  %10 = add nsw i32 %.val5.i, -1
  %11 = tail call range(i32 -2147483648, 2147483647) i32 @llvm.smin.i32(i32 %.val, i32 range(i32 -2147483648, 2147483647) %10)
  %12 = getelementptr i8, ptr %5, i64 8
  %.val.i = load ptr, ptr %12, align 8, !tbaa !17
  %13 = sext i32 %11 to i64
  %14 = getelementptr inbounds float, ptr %.val.i, i64 %13
  %15 = load float, ptr %14, align 4, !tbaa !23
  br label %Abc_SclFindWireLoad.exit

Abc_SclFindWireLoad.exit:                         ; preds = %3, %7
  %.0.i = phi float [ %15, %7 ], [ 0.000000e+00, %3 ]
  %.not = icmp eq i32 %2, 0
  %16 = fneg float %.0.i
  %17 = select i1 %.not, float %.0.i, float %16
  %18 = getelementptr i8, ptr %0, i64 64
  %.val11 = load ptr, ptr %18, align 8, !tbaa !44
  %19 = getelementptr i8, ptr %1, i64 16
  %.val12 = load i32, ptr %19, align 8, !tbaa !45
  %20 = zext i32 %.val12 to i64
  %21 = getelementptr inbounds nuw %struct.SC_Pair_, ptr %.val11, i64 %20
  %22 = load float, ptr %21, align 4, !tbaa !46
  %23 = fadd float %17, %22
  store float %23, ptr %21, align 4, !tbaa !46
  %24 = getelementptr inbounds nuw i8, ptr %21, i64 4
  %25 = load float, ptr %24, align 4, !tbaa !48
  %26 = fadd float %17, %25
  store float %26, ptr %24, align 4, !tbaa !48
  ret void
}